; Function Attrs: nounwind uwtable
define ptr @l_Lean_Language_SnapshotTree_findInfoTreeAtPos(ptr noundef %0, ptr noundef %1, ptr noundef %2, i8 noundef zeroext %3) local_unnamed_addr #1 {
  tail call void @lean_inc_heartbeat() #6
  %5 = tail call noalias ptr @mi_malloc_small(i64 noundef 56) #6
  %6 = icmp eq ptr %5, null
  br i1 %6, label %7, label %lean_alloc_closure.exit

7:                                                ; preds = %4
  tail call void @lean_internal_panic_out_of_memory() #7
  unreachable

lean_alloc_closure.exit:                          ; preds = %4
  %8 = zext i8 %3 to i64
  %9 = shl nuw nsw i64 %8, 1
  %10 = or disjoint i64 %9, 1
  %11 = inttoptr i64 %10 to ptr
  %12 = getelementptr inbounds nuw i8, ptr %5, i64 4
  store i32 1, ptr %5, align 4, !tbaa !4
  store i32 -184549320, ptr %12, align 4
  %13 = getelementptr inbounds nuw i8, ptr %5, i64 8
  store ptr @l_Lean_Language_SnapshotTree_findInfoTreeAtPos___lambda__3___boxed, ptr %13, align 8, !tbaa !9
  %14 = getelementptr inbounds nuw i8, ptr %5, i64 16
  store i16 6, ptr %14, align 8, !tbaa !15
  %15 = getelementptr inbounds nuw i8, ptr %5, i64 18
  store i16 4, ptr %15, align 2, !tbaa !15
  %16 = getelementptr inbounds nuw i8, ptr %5, i64 24
  store ptr inttoptr (i64 1 to ptr), ptr %16, align 8, !tbaa !9
  %17 = getelementptr inbounds nuw i8, ptr %5, i64 32
  store ptr %0, ptr %17, align 8, !tbaa !9
  %18 = getelementptr inbounds nuw i8, ptr %5, i64 40
  store ptr %2, ptr %18, align 8, !tbaa !9
  %19 = getelementptr inbounds nuw i8, ptr %5, i64 48
  store ptr %11, ptr %19, align 8, !tbaa !9
  %20 = tail call ptr @l_Lean_Language_SnapshotTree_foldSnaps___rarg(ptr noundef %1, ptr noundef nonnull inttoptr (i64 1 to ptr), ptr noundef nonnull %5)
  ret ptr %20
}